; Function Attrs: mustprogress uwtable
define hidden void @_ZN12opencv_caffe18BatchNormParameter8CopyFromERKS0_(ptr noundef nonnull align 8 dereferenceable(40) %0, ptr noundef nonnull readonly align 8 dereferenceable(40) %1) local_unnamed_addr #3 align 2 personality ptr @__gxx_personality_v0 {
  %3 = icmp eq ptr %1, %0
  br i1 %3, label %_ZN12opencv_caffe18BatchNormParameter9MergeFromERKS0_.exit, label %4

4:                                                ; preds = %2
  %5 = getelementptr inbounds nuw i8, ptr %0, i64 24
  store i16 0, ptr %5, align 8
  %6 = getelementptr inbounds nuw i8, ptr %0, i64 16
  %7 = load i32, ptr %6, align 8, !tbaa !71
  %8 = and i32 %7, 12
  %.not.i = icmp eq i32 %8, 0
  br i1 %.not.i, label %12, label %9

9:                                                ; preds = %4
  %10 = getelementptr inbounds nuw i8, ptr %0, i64 28
  store float 0x3FEFF7CEE0000000, ptr %10, align 4, !tbaa !579
  %11 = getelementptr inbounds nuw i8, ptr %0, i64 32
  store float 0x3EE4F8B580000000, ptr %11, align 8, !tbaa !581
  br label %12

12:                                               ; preds = %9, %4
  store i32 0, ptr %6, align 8
  %13 = getelementptr inbounds nuw i8, ptr %0, i64 8
  %14 = load i64, ptr %13, align 8, !tbaa !8
  %15 = and i64 %14, 1
  %.not1.i = icmp eq i64 %15, 0
  br i1 %.not1.i, label %_ZN12opencv_caffe18BatchNormParameter5ClearEv.exit, label %16

16:                                               ; preds = %12
  tail call void @_ZN6google8protobuf8internal16InternalMetadata7DoClearINS0_15UnknownFieldSetEEEvv(ptr noundef nonnull align 8 dereferenceable(8) %13)
  br label %_ZN12opencv_caffe18BatchNormParameter5ClearEv.exit

_ZN12opencv_caffe18BatchNormParameter5ClearEv.exit: ; preds = %12, %16
  %17 = getelementptr inbounds nuw i8, ptr %1, i64 16
  %18 = load i32, ptr %17, align 8, !tbaa !71
  %19 = and i32 %18, 15
  %.not.i4 = icmp eq i32 %19, 0
  br i1 %.not.i4, label %46, label %20

20:                                               ; preds = %_ZN12opencv_caffe18BatchNormParameter5ClearEv.exit
  %21 = and i32 %18, 1
  %.not12.i = icmp eq i32 %21, 0
  br i1 %.not12.i, label %25, label %22

22:                                               ; preds = %20
  %23 = getelementptr inbounds nuw i8, ptr %1, i64 24
  %24 = load i8, ptr %23, align 8, !tbaa !673, !range !126, !noundef !127
  store i8 %24, ptr %5, align 8, !tbaa !673
  br label %25

25:                                               ; preds = %22, %20
  %26 = and i32 %18, 2
  %.not13.i = icmp eq i32 %26, 0
  br i1 %.not13.i, label %31, label %27

27:                                               ; preds = %25
  %28 = getelementptr inbounds nuw i8, ptr %1, i64 25
  %29 = load i8, ptr %28, align 1, !tbaa !674, !range !126, !noundef !127
  %30 = getelementptr inbounds nuw i8, ptr %0, i64 25
  store i8 %29, ptr %30, align 1, !tbaa !674
  br label %31

31:                                               ; preds = %27, %25
  %32 = and i32 %18, 4
  %.not14.i = icmp eq i32 %32, 0
  br i1 %.not14.i, label %37, label %33

33:                                               ; preds = %31
  %34 = getelementptr inbounds nuw i8, ptr %1, i64 28
  %35 = load float, ptr %34, align 4, !tbaa !579
  %36 = getelementptr inbounds nuw i8, ptr %0, i64 28
  store float %35, ptr %36, align 4, !tbaa !579
  br label %37

37:                                               ; preds = %33, %31
  %38 = and i32 %18, 8
  %.not15.i = icmp eq i32 %38, 0
  br i1 %.not15.i, label %43, label %39

39:                                               ; preds = %37
  %40 = getelementptr inbounds nuw i8, ptr %1, i64 32
  %41 = load float, ptr %40, align 8, !tbaa !581
  %42 = getelementptr inbounds nuw i8, ptr %0, i64 32
  store float %41, ptr %42, align 8, !tbaa !581
  br label %43

43:                                               ; preds = %39, %37
  %44 = load i32, ptr %6, align 8, !tbaa !71
  %45 = or i32 %44, %18
  store i32 %45, ptr %6, align 8, !tbaa !71
  br label %46

46:                                               ; preds = %43, %_ZN12opencv_caffe18BatchNormParameter5ClearEv.exit
  %47 = getelementptr inbounds nuw i8, ptr %1, i64 8
  %48 = load i64, ptr %47, align 8, !tbaa !8
  %49 = and i64 %48, 1
  %.not16.i = icmp eq i64 %49, 0
  br i1 %.not16.i, label %_ZN12opencv_caffe18BatchNormParameter9MergeFromERKS0_.exit, label %_ZNK6google8protobuf8internal16InternalMetadata14unknown_fieldsINS0_15UnknownFieldSetEEERKT_PFS7_vE.exit.i

_ZNK6google8protobuf8internal16InternalMetadata14unknown_fieldsINS0_15UnknownFieldSetEEERKT_PFS7_vE.exit.i: ; preds = %46
  %50 = and i64 %48, -4
  %51 = inttoptr i64 %50 to ptr
  %52 = getelementptr inbounds nuw i8, ptr %51, i64 8
  tail call void @_ZN6google8protobuf8internal16InternalMetadata11DoMergeFromINS0_15UnknownFieldSetEEEvRKT_(ptr noundef nonnull align 8 dereferenceable(8) %13, ptr noundef nonnull align 8 dereferenceable(24) %52)
  br label %_ZN12opencv_caffe18BatchNormParameter9MergeFromERKS0_.exit

_ZN12opencv_caffe18BatchNormParameter9MergeFromERKS0_.exit: ; preds = %_ZNK6google8protobuf8internal16InternalMetadata14unknown_fieldsINS0_15UnknownFieldSetEEERKT_PFS7_vE.exit.i, %46, %2
  ret void
}